; Function Attrs: nofree norecurse nosync nounwind memory(read, argmem: readwrite, inaccessiblemem: none) uwtable
define void @Fxu_HeapDoubleCheck(ptr noundef captures(none) %0) local_unnamed_addr #5 {
  %2 = getelementptr inbounds nuw i8, ptr %0, i64 8
  %3 = load i32, ptr %2, align 8, !tbaa !13
  %.not10 = icmp slt i32 %3, 1
  br i1 %.not10, label %.critedge, label %.lr.ph

.lr.ph:                                           ; preds = %1
  %4 = load ptr, ptr %0, align 8, !tbaa !10
  %5 = add nuw i32 %3, 1
  %wide.trip.count = zext i32 %5 to i64
  br label %6

6:                                                ; preds = %.lr.ph, %9
  %indvars.iv = phi i64 [ 1, %.lr.ph ], [ %indvars.iv.next, %9 ]
  %7 = getelementptr inbounds nuw ptr, ptr %4, i64 %indvars.iv
  %8 = load ptr, ptr %7, align 8, !tbaa !11
  %.not9 = icmp eq ptr %8, null
  br i1 %.not9, label %.critedge.loopexit.split.loop.exit15, label %9

9:                                                ; preds = %6
  %indvars.iv.next = add nuw nsw i64 %indvars.iv, 1
  %exitcond.not = icmp eq i64 %indvars.iv.next, %wide.trip.count
  br i1 %exitcond.not, label %.critedge, label %6, !llvm.loop !14

.critedge.loopexit.split.loop.exit15:             ; preds = %6
  %10 = trunc nuw nsw i64 %indvars.iv to i32
  br label %.critedge

.critedge:                                        ; preds = %9, %.critedge.loopexit.split.loop.exit15, %1
  %storemerge.lcssa = phi i32 [ 1, %1 ], [ %10, %.critedge.loopexit.split.loop.exit15 ], [ %5, %9 ]
  %11 = getelementptr inbounds nuw i8, ptr %0, i64 16
  store i32 %storemerge.lcssa, ptr %11, align 8, !tbaa !16
  ret void
}